; ModuleID = '16/1313.c'
source_filename = "16/1313.c"
target datalayout = "e-m:e-p270:32:32-p271:32:32-p272:64:64-i64:64-f80:128-n8:16:32:64-S128"
target triple = "x86_64-pc-linux-gnu"

@.str = private unnamed_addr constant [3 x i8] c"%d\00", align 1
@.str.1 = private unnamed_addr constant [5 x i8] c"%d%d\00", align 1
@.str.2 = private unnamed_addr constant [7 x i8] c"%d%d%d\00", align 1
@.str.3 = private unnamed_addr constant [9 x i8] c"%d%d%d%d\00", align 1

; Function Attrs: noinline nounwind uwtable
define dso_local i32 @main() #0 {
  %1 = alloca i32, align 4
  %2 = alloca i32, align 4
  %3 = alloca i32, align 4
  %4 = alloca i32, align 4
  %5 = alloca i32, align 4
  %6 = alloca i32, align 4
  store i32 0, i32* %1, align 4
  %7 = call i32 (i8*, ...) @__isoc99_scanf(i8* getelementptr inbounds ([3 x i8], [3 x i8]* @.str, i64 0, i64 0), i32* %2)
  %8 = load i32, i32* %2, align 4
  %9 = icmp slt i32 %8, 10
  br i1 %9, label %10, label %14

10:                                               ; preds = %0
  %11 = load i32, i32* %2, align 4
  store i32 %11, i32* %3, align 4
  store i32 0, i32* %4, align 4
  store i32 0, i32* %5, align 4
  store i32 0, i32* %6, align 4
  %12 = load i32, i32* %3, align 4
  %13 = call i32 (i8*, ...) @printf(i8* getelementptr inbounds ([3 x i8], [3 x i8]* @.str, i64 0, i64 0), i32 %12)
  br label %62

14:                                               ; preds = %0
  %15 = load i32, i32* %2, align 4
  %16 = icmp slt i32 %15, 100
  br i1 %16, label %17, label %25

17:                                               ; preds = %14
  %18 = load i32, i32* %2, align 4
  %19 = sdiv i32 %18, 10
  store i32 %19, i32* %3, align 4
  %20 = load i32, i32* %2, align 4
  %21 = srem i32 %20, 10
  store i32 %21, i32* %4, align 4
  store i32 0, i32* %5, align 4
  store i32 0, i32* %6, align 4
  %22 = load i32, i32* %4, align 4
  %23 = load i32, i32* %3, align 4
  %24 = call i32 (i8*, ...) @printf(i8* getelementptr inbounds ([5 x i8], [5 x i8]* @.str.1, i64 0, i64 0), i32 %22, i32 %23)
  br label %61

25:                                               ; preds = %14
  %26 = load i32, i32* %2, align 4
  %27 = icmp slt i32 %26, 1000
  br i1 %27, label %28, label %40

28:                                               ; preds = %25
  %29 = load i32, i32* %2, align 4
  %30 = sdiv i32 %29, 100
  store i32 %30, i32* %3, align 4
  %31 = load i32, i32* %2, align 4
  %32 = srem i32 %31, 100
  %33 = sdiv i32 %32, 10
  store i32 %33, i32* %4, align 4
  %34 = load i32, i32* %2, align 4
  %35 = srem i32 %34, 10
  store i32 %35, i32* %5, align 4
  store i32 0, i32* %6, align 4
  %36 = load i32, i32* %5, align 4
  %37 = load i32, i32* %4, align 4
  %38 = load i32, i32* %3, align 4
  %39 = call i32 (i8*, ...) @printf(i8* getelementptr inbounds ([7 x i8], [7 x i8]* @.str.2, i64 0, i64 0), i32 %36, i32 %37, i32 %38)
  br label %60

40:                                               ; preds = %25
  %41 = load i32, i32* %2, align 4
  %42 = icmp slt i32 %41, 10000
  br i1 %42, label %43, label %59

43:                                               ; preds = %40
  %44 = load i32, i32* %2, align 4
  %45 = sdiv i32 %44, 1000
  store i32 %45, i32* %3, align 4
  %46 = load i32, i32* %2, align 4
  %47 = srem i32 %46, 1000
  %48 = sdiv i32 %47, 100
  store i32 %48, i32* %4, align 4
  %49 = load i32, i32* %2, align 4
  %50 = srem i32 %49, 100
  %51 = sdiv i32 %50, 10
  store i32 %51, i32* %5, align 4
  %52 = load i32, i32* %2, align 4
  %53 = srem i32 %52, 10
  store i32 %53, i32* %6, align 4
  %54 = load i32, i32* %6, align 4
  %55 = load i32, i32* %5, align 4
  %56 = load i32, i32* %4, align 4
  %57 = load i32, i32* %3, align 4
  %58 = call i32 (i8*, ...) @printf(i8* getelementptr inbounds ([9 x i8], [9 x i8]* @.str.3, i64 0, i64 0), i32 %54, i32 %55, i32 %56, i32 %57)
  br label %59

59:                                               ; preds = %43, %40
  br label %60

60:                                               ; preds = %59, %28
  br label %61

61:                                               ; preds = %60, %17
  br label %62

62:                                               ; preds = %61, %10
  ret i32 0
}

declare dso_local i32 @__isoc99_scanf(i8*, ...) #1

declare dso_local i32 @printf(i8*, ...) #1


!llvm.module.flags = !{!0}
!llvm.ident = !{!1}

!0 = !{i32 1, !"wchar_size", i32 4}
!1 = !{!"clang version 10.0.0-4ubuntu1 "}
